; Function Attrs: nounwind uwtable
define ptr @l_Array_foldlMUnsafe_fold___at_Lake_LeanConfig_instConfigMeta___spec__1(ptr noundef readonly captures(none) %0, i64 noundef %1, i64 noundef %2, ptr noundef %3) local_unnamed_addr #1 {
  %.not30 = icmp eq i64 %1, %2
  br i1 %.not30, label %._crit_edge, label %.lr.ph

.lr.ph:                                           ; preds = %4
  %5 = getelementptr inbounds nuw i8, ptr %0, i64 24
  br label %6

6:                                                ; preds = %.lr.ph, %27
  %.01732 = phi i64 [ %1, %.lr.ph ], [ %29, %27 ]
  %.01931 = phi ptr [ %3, %.lr.ph ], [ %28, %27 ]
  %7 = getelementptr inbounds nuw [0 x ptr], ptr %5, i64 0, i64 %.01732
  %8 = load ptr, ptr %7, align 8, !tbaa !10
  %9 = ptrtoint ptr %8 to i64
  %10 = and i64 %9, 1
  %.not.i = icmp eq i64 %10, 0
  br i1 %.not.i, label %11, label %lean_array_uget.exit

11:                                               ; preds = %6
  %.val.i.i = load i32, ptr %8, align 4, !tbaa !4
  %12 = icmp sgt i32 %.val.i.i, 0
  br i1 %12, label %13, label %15, !prof !9

13:                                               ; preds = %11
  %14 = add nuw i32 %.val.i.i, 1
  store i32 %14, ptr %8, align 4, !tbaa !4
  br label %lean_array_uget.exit

15:                                               ; preds = %11
  %.not.i.i = icmp eq i32 %.val.i.i, 0
  br i1 %.not.i.i, label %lean_array_uget.exit, label %16

16:                                               ; preds = %15
  tail call void @lean_inc_ref_cold(ptr noundef nonnull %8) #8
  br label %lean_array_uget.exit

lean_array_uget.exit:                             ; preds = %6, %13, %15, %16
  %17 = getelementptr inbounds nuw i8, ptr %8, i64 8
  %18 = load ptr, ptr %17, align 8, !tbaa !10
  %19 = ptrtoint ptr %18 to i64
  %20 = and i64 %19, 1
  %.not29 = icmp eq i64 %20, 0
  br i1 %.not29, label %21, label %27

21:                                               ; preds = %lean_array_uget.exit
  %.val.i = load i32, ptr %18, align 4, !tbaa !4
  %22 = icmp sgt i32 %.val.i, 0
  br i1 %22, label %23, label %25, !prof !9

23:                                               ; preds = %21
  %24 = add nuw i32 %.val.i, 1
  store i32 %24, ptr %18, align 4, !tbaa !4
  br label %27

25:                                               ; preds = %21
  %.not.i21 = icmp eq i32 %.val.i, 0
  br i1 %.not.i21, label %27, label %26

26:                                               ; preds = %25
  tail call void @lean_inc_ref_cold(ptr noundef nonnull %18) #8
  br label %27

27:                                               ; preds = %lean_array_uget.exit, %23, %25, %26
  %28 = tail call ptr @l_Lean_RBNode_insert___at_Lean_NameMap_insert___spec__1___rarg(ptr noundef %.01931, ptr noundef %18, ptr noundef nonnull %8) #8
  %29 = add i64 %.01732, 1
  %.not = icmp eq i64 %29, %2
  br i1 %.not, label %._crit_edge, label %6

._crit_edge:                                      ; preds = %27, %4
  %.019.lcssa = phi ptr [ %3, %4 ], [ %28, %27 ]
  ret ptr %.019.lcssa
}